ARM GAS  C:\Users\PHYLLI~1\AppData\Local\Temp\ccOhvxTd.s 			page 1


   1              		.syntax unified
   2              		.cpu cortex-m0
   3              		.fpu softvfp
   4              		.eabi_attribute 20, 1
   5              		.eabi_attribute 21, 1
   6              		.eabi_attribute 23, 3
   7              		.eabi_attribute 24, 1
   8              		.eabi_attribute 25, 1
   9              		.eabi_attribute 26, 1
  10              		.eabi_attribute 30, 6
  11              		.eabi_attribute 34, 0
  12              		.eabi_attribute 18, 4
  13              		.thumb
  14              		.syntax unified
  15              		.file	"I2S_1.c"
  16              		.text
  17              	.Ltext0:
  18              		.cfi_sections	.debug_frame
  19              		.global	I2S_1_initVar
  20              		.bss
  21              		.type	I2S_1_initVar, %object
  22              		.size	I2S_1_initVar, 1
  23              	I2S_1_initVar:
  24 0000 00       		.space	1
  25              		.section	.text.I2S_1_Enable,"ax",%progbits
  26              		.align	2
  27              		.global	I2S_1_Enable
  28              		.code	16
  29              		.thumb_func
  30              		.type	I2S_1_Enable, %function
  31              	I2S_1_Enable:
  32              	.LFB2:
  33              		.file 1 "Generated_Source\\PSoC4\\I2S_1.c"
   1:Generated_Source\PSoC4/I2S_1.c **** /*******************************************************************************
   2:Generated_Source\PSoC4/I2S_1.c **** * File Name: I2S_1.c
   3:Generated_Source\PSoC4/I2S_1.c **** * Version 2.70
   4:Generated_Source\PSoC4/I2S_1.c **** *
   5:Generated_Source\PSoC4/I2S_1.c **** * Description:
   6:Generated_Source\PSoC4/I2S_1.c **** *  This file contains the setup, control and status commands for the I2S
   7:Generated_Source\PSoC4/I2S_1.c **** *  component.
   8:Generated_Source\PSoC4/I2S_1.c **** *
   9:Generated_Source\PSoC4/I2S_1.c **** * Note:
  10:Generated_Source\PSoC4/I2S_1.c **** *
  11:Generated_Source\PSoC4/I2S_1.c **** ********************************************************************************
  12:Generated_Source\PSoC4/I2S_1.c **** * Copyright 2008-2015, Cypress Semiconductor Corporation.  All rights reserved.
  13:Generated_Source\PSoC4/I2S_1.c **** * You may use this file only in accordance with the license, terms, conditions,
  14:Generated_Source\PSoC4/I2S_1.c **** * disclaimers, and limitations in the end user license agreement accompanying
  15:Generated_Source\PSoC4/I2S_1.c **** * the software package with which this file was provided.
  16:Generated_Source\PSoC4/I2S_1.c **** *******************************************************************************/
  17:Generated_Source\PSoC4/I2S_1.c **** 
  18:Generated_Source\PSoC4/I2S_1.c **** #include "CyLib.h"
  19:Generated_Source\PSoC4/I2S_1.c **** #include "I2S_1.h"
  20:Generated_Source\PSoC4/I2S_1.c **** 
  21:Generated_Source\PSoC4/I2S_1.c **** uint8 I2S_1_initVar = 0u;
  22:Generated_Source\PSoC4/I2S_1.c **** 
  23:Generated_Source\PSoC4/I2S_1.c **** 
  24:Generated_Source\PSoC4/I2S_1.c **** /*******************************************************************************
ARM GAS  C:\Users\PHYLLI~1\AppData\Local\Temp\ccOhvxTd.s 			page 2


  25:Generated_Source\PSoC4/I2S_1.c **** * Function Name: I2S_1_Enable
  26:Generated_Source\PSoC4/I2S_1.c **** ********************************************************************************
  27:Generated_Source\PSoC4/I2S_1.c **** *
  28:Generated_Source\PSoC4/I2S_1.c **** * Summary:
  29:Generated_Source\PSoC4/I2S_1.c **** *  Enables I2S interface. Starts the generation of the sck and ws outputs.
  30:Generated_Source\PSoC4/I2S_1.c **** *  The Tx and Rx directions remain disabled. It is not necessary to call
  31:Generated_Source\PSoC4/I2S_1.c **** *  I2S_Enable() because the I2S_Start() routine calls this function, which is
  32:Generated_Source\PSoC4/I2S_1.c **** *  the preferred method to begin component operation.
  33:Generated_Source\PSoC4/I2S_1.c **** *
  34:Generated_Source\PSoC4/I2S_1.c **** * Parameters:
  35:Generated_Source\PSoC4/I2S_1.c **** *  None.
  36:Generated_Source\PSoC4/I2S_1.c **** *
  37:Generated_Source\PSoC4/I2S_1.c **** * Return:
  38:Generated_Source\PSoC4/I2S_1.c **** *  None.
  39:Generated_Source\PSoC4/I2S_1.c **** *
  40:Generated_Source\PSoC4/I2S_1.c **** *******************************************************************************/
  41:Generated_Source\PSoC4/I2S_1.c **** void I2S_1_Enable(void) 
  42:Generated_Source\PSoC4/I2S_1.c **** {
  34              		.loc 1 42 0
  35              		.cfi_startproc
  36              		@ args = 0, pretend = 0, frame = 8
  37              		@ frame_needed = 1, uses_anonymous_args = 0
  38 0000 90B5     		push	{r4, r7, lr}
  39              		.cfi_def_cfa_offset 12
  40              		.cfi_offset 4, -12
  41              		.cfi_offset 7, -8
  42              		.cfi_offset 14, -4
  43 0002 83B0     		sub	sp, sp, #12
  44              		.cfi_def_cfa_offset 24
  45 0004 00AF     		add	r7, sp, #0
  46              		.cfi_def_cfa_register 7
  43:Generated_Source\PSoC4/I2S_1.c ****     uint8 enableInterrupts;
  44:Generated_Source\PSoC4/I2S_1.c **** 
  45:Generated_Source\PSoC4/I2S_1.c ****     enableInterrupts = CyEnterCriticalSection();
  47              		.loc 1 45 0
  48 0006 FC1D     		adds	r4, r7, #7
  49 0008 FFF7FEFF 		bl	CyEnterCriticalSection
  50 000c 0300     		movs	r3, r0
  51 000e 2370     		strb	r3, [r4]
  46:Generated_Source\PSoC4/I2S_1.c ****     I2S_1_AUX_CONTROL_REG |= I2S_1_CNT_START;
  52              		.loc 1 46 0
  53 0010 0C4A     		ldr	r2, .L2
  54 0012 0C4B     		ldr	r3, .L2
  55 0014 1B78     		ldrb	r3, [r3]
  56 0016 DBB2     		uxtb	r3, r3
  57 0018 2021     		movs	r1, #32
  58 001a 0B43     		orrs	r3, r1
  59 001c DBB2     		uxtb	r3, r3
  60 001e 1370     		strb	r3, [r2]
  47:Generated_Source\PSoC4/I2S_1.c ****     CyExitCriticalSection(enableInterrupts);
  61              		.loc 1 47 0
  62 0020 FB1D     		adds	r3, r7, #7
  63 0022 1B78     		ldrb	r3, [r3]
  64 0024 1800     		movs	r0, r3
  65 0026 FFF7FEFF 		bl	CyExitCriticalSection
  48:Generated_Source\PSoC4/I2S_1.c **** 
  49:Generated_Source\PSoC4/I2S_1.c ****     I2S_1_CONTROL_REG |= I2S_1_EN;
ARM GAS  C:\Users\PHYLLI~1\AppData\Local\Temp\ccOhvxTd.s 			page 3


  66              		.loc 1 49 0
  67 002a 074A     		ldr	r2, .L2+4
  68 002c 064B     		ldr	r3, .L2+4
  69 002e 1B78     		ldrb	r3, [r3]
  70 0030 DBB2     		uxtb	r3, r3
  71 0032 0421     		movs	r1, #4
  72 0034 0B43     		orrs	r3, r1
  73 0036 DBB2     		uxtb	r3, r3
  74 0038 1370     		strb	r3, [r2]
  50:Generated_Source\PSoC4/I2S_1.c **** }
  75              		.loc 1 50 0
  76 003a C046     		nop
  77 003c BD46     		mov	sp, r7
  78 003e 03B0     		add	sp, sp, #12
  79              		@ sp needed
  80 0040 90BD     		pop	{r4, r7, pc}
  81              	.L3:
  82 0042 C046     		.align	2
  83              	.L2:
  84 0044 90000F40 		.word	1074725008
  85 0048 71000F40 		.word	1074724977
  86              		.cfi_endproc
  87              	.LFE2:
  88              		.size	I2S_1_Enable, .-I2S_1_Enable
  89              		.section	.text.I2S_1_Init,"ax",%progbits
  90              		.align	2
  91              		.global	I2S_1_Init
  92              		.code	16
  93              		.thumb_func
  94              		.type	I2S_1_Init, %function
  95              	I2S_1_Init:
  96              	.LFB3:
  51:Generated_Source\PSoC4/I2S_1.c **** 
  52:Generated_Source\PSoC4/I2S_1.c **** 
  53:Generated_Source\PSoC4/I2S_1.c **** /*******************************************************************************
  54:Generated_Source\PSoC4/I2S_1.c **** * Function Name: I2S_1_Init
  55:Generated_Source\PSoC4/I2S_1.c **** ********************************************************************************
  56:Generated_Source\PSoC4/I2S_1.c **** *
  57:Generated_Source\PSoC4/I2S_1.c **** * Summary:
  58:Generated_Source\PSoC4/I2S_1.c **** *  Initializes or restores default I2S configuration provided with customizer.
  59:Generated_Source\PSoC4/I2S_1.c **** *  It is not necessary to call I2S_Init() because the I2S_Start() routine calls
  60:Generated_Source\PSoC4/I2S_1.c **** *  this function, which is the preferred method to begin component operation.
  61:Generated_Source\PSoC4/I2S_1.c **** *
  62:Generated_Source\PSoC4/I2S_1.c **** * Parameters:
  63:Generated_Source\PSoC4/I2S_1.c **** *  None.
  64:Generated_Source\PSoC4/I2S_1.c **** *
  65:Generated_Source\PSoC4/I2S_1.c **** * Return:
  66:Generated_Source\PSoC4/I2S_1.c **** *  None.
  67:Generated_Source\PSoC4/I2S_1.c **** *
  68:Generated_Source\PSoC4/I2S_1.c **** *******************************************************************************/
  69:Generated_Source\PSoC4/I2S_1.c **** void I2S_1_Init(void) 
  70:Generated_Source\PSoC4/I2S_1.c **** {
  97              		.loc 1 70 0
  98              		.cfi_startproc
  99              		@ args = 0, pretend = 0, frame = 0
 100              		@ frame_needed = 1, uses_anonymous_args = 0
 101 0000 80B5     		push	{r7, lr}
ARM GAS  C:\Users\PHYLLI~1\AppData\Local\Temp\ccOhvxTd.s 			page 4


 102              		.cfi_def_cfa_offset 8
 103              		.cfi_offset 7, -8
 104              		.cfi_offset 14, -4
 105 0002 00AF     		add	r7, sp, #0
 106              		.cfi_def_cfa_register 7
  71:Generated_Source\PSoC4/I2S_1.c ****     #if (I2S_1_CLIP_DETECT_ENABLE)
  72:Generated_Source\PSoC4/I2S_1.c ****         static const uint8 CYCODE I2S_1_posThresholds[] = {0u};
  73:Generated_Source\PSoC4/I2S_1.c ****         static const int8  CYCODE I2S_1_negThresholds[] = {-1};
  74:Generated_Source\PSoC4/I2S_1.c ****     #endif /* I2S_1_CLIP_DETECT_ENABLE */
  75:Generated_Source\PSoC4/I2S_1.c **** 
  76:Generated_Source\PSoC4/I2S_1.c ****     #if (I2S_1_DYNAMIC_BIT_RESOLUTION)
  77:Generated_Source\PSoC4/I2S_1.c ****         (void)I2S_1_SetDataBits(I2S_1_DATA_BITS);
  78:Generated_Source\PSoC4/I2S_1.c ****     #endif /* I2S_1_DYNAMIC_BIT_RESOLUTION */
  79:Generated_Source\PSoC4/I2S_1.c **** 
  80:Generated_Source\PSoC4/I2S_1.c ****     /* Initialize Tx interrupt source selected in customizer */
  81:Generated_Source\PSoC4/I2S_1.c ****     #if (I2S_1_TX_DIRECTION_ENABLE)
  82:Generated_Source\PSoC4/I2S_1.c ****         I2S_1_SET_TX_INT_MASK(CH0, I2S_1_TX_INT_SOURCE);
  83:Generated_Source\PSoC4/I2S_1.c ****         #if (I2S_1_TX_STEREO_1_PRESENT)
  84:Generated_Source\PSoC4/I2S_1.c ****             I2S_1_SET_TX_INT_MASK(CH1, I2S_1_TX_INT_SOURCE);
  85:Generated_Source\PSoC4/I2S_1.c ****         #endif /* I2S_1_TX_STEREO_1_PRESENT */
  86:Generated_Source\PSoC4/I2S_1.c ****         #if (I2S_1_TX_STEREO_2_PRESENT)
  87:Generated_Source\PSoC4/I2S_1.c ****             I2S_1_SET_TX_INT_MASK(CH2, I2S_1_TX_INT_SOURCE);
  88:Generated_Source\PSoC4/I2S_1.c ****         #endif /* I2S_1_TX_STEREO_2_PRESENT */
  89:Generated_Source\PSoC4/I2S_1.c ****         #if (I2S_1_TX_STEREO_3_PRESENT)
  90:Generated_Source\PSoC4/I2S_1.c ****             I2S_1_SET_TX_INT_MASK(CH3, I2S_1_TX_INT_SOURCE);
  91:Generated_Source\PSoC4/I2S_1.c ****         #endif /* I2S_1_TX_STEREO_3_PRESENT */
  92:Generated_Source\PSoC4/I2S_1.c ****         #if (I2S_1_TX_STEREO_4_PRESENT)
  93:Generated_Source\PSoC4/I2S_1.c ****             I2S_1_SET_TX_INT_MASK(CH4, I2S_1_TX_INT_SOURCE);
  94:Generated_Source\PSoC4/I2S_1.c ****         #endif /* I2S_1_TX_STEREO_4_PRESENT */
  95:Generated_Source\PSoC4/I2S_1.c ****     #endif /* (I2S_1_TX_DIRECTION_ENABLE) */
  96:Generated_Source\PSoC4/I2S_1.c ****     
  97:Generated_Source\PSoC4/I2S_1.c ****     /* Initialize Rx interrupt source and clipping thresholds selected in customizer */
  98:Generated_Source\PSoC4/I2S_1.c ****     #if (I2S_1_RX_DIRECTION_ENABLE)
  99:Generated_Source\PSoC4/I2S_1.c ****         I2S_1_SET_RX_INT_MASK(CH0, I2S_1_RX_INT_SOURCE);
 107              		.loc 1 99 0
 108 0004 074A     		ldr	r2, .L5
 109 0006 074B     		ldr	r3, .L5
 110 0008 1B78     		ldrb	r3, [r3]
 111 000a DBB2     		uxtb	r3, r3
 112 000c 0721     		movs	r1, #7
 113 000e 8B43     		bics	r3, r1
 114 0010 DBB2     		uxtb	r3, r3
 115 0012 1370     		strb	r3, [r2]
 116 0014 034B     		ldr	r3, .L5
 117 0016 034A     		ldr	r2, .L5
 118 0018 1278     		ldrb	r2, [r2]
 119 001a D2B2     		uxtb	r2, r2
 120 001c 1A70     		strb	r2, [r3]
 100:Generated_Source\PSoC4/I2S_1.c ****         #if (I2S_1_CLIP_DETECT_ENABLE)
 101:Generated_Source\PSoC4/I2S_1.c ****             I2S_1_SET_POS_THRESHOLD(CH0, I2S_1_posThresholds[I2S_1_STEREO_0]);
 102:Generated_Source\PSoC4/I2S_1.c ****             I2S_1_SET_NEG_THRESHOLD(CH0, I2S_1_negThresholds[I2S_1_STEREO_0]);
 103:Generated_Source\PSoC4/I2S_1.c ****         #endif /* I2S_1_CLIP_DETECT_ENABLE */
 104:Generated_Source\PSoC4/I2S_1.c ****         #if (I2S_1_RX_STEREO_1_PRESENT)
 105:Generated_Source\PSoC4/I2S_1.c ****             I2S_1_SET_RX_INT_MASK(CH1, I2S_1_RX_INT_SOURCE);
 106:Generated_Source\PSoC4/I2S_1.c ****             #if (I2S_1_CLIP_DETECT_ENABLE)
 107:Generated_Source\PSoC4/I2S_1.c ****                 I2S_1_SET_POS_THRESHOLD(CH1, I2S_1_posThresholds[I2S_1_STEREO_1]);
 108:Generated_Source\PSoC4/I2S_1.c ****                 I2S_1_SET_NEG_THRESHOLD(CH1, I2S_1_negThresholds[I2S_1_STEREO_1]);
ARM GAS  C:\Users\PHYLLI~1\AppData\Local\Temp\ccOhvxTd.s 			page 5


 109:Generated_Source\PSoC4/I2S_1.c ****             #endif /* I2S_1_CLIP_DETECT_ENABLE */
 110:Generated_Source\PSoC4/I2S_1.c ****         #endif /* I2S_1_RX_STEREO_1_PRESENT */
 111:Generated_Source\PSoC4/I2S_1.c ****         #if (I2S_1_RX_STEREO_2_PRESENT)
 112:Generated_Source\PSoC4/I2S_1.c ****             I2S_1_SET_RX_INT_MASK(CH2, I2S_1_RX_INT_SOURCE);
 113:Generated_Source\PSoC4/I2S_1.c ****             #if (I2S_1_CLIP_DETECT_ENABLE)
 114:Generated_Source\PSoC4/I2S_1.c ****                 I2S_1_SET_POS_THRESHOLD(CH2, I2S_1_posThresholds[I2S_1_STEREO_2]);
 115:Generated_Source\PSoC4/I2S_1.c ****                 I2S_1_SET_NEG_THRESHOLD(CH2, I2S_1_negThresholds[I2S_1_STEREO_2]);
 116:Generated_Source\PSoC4/I2S_1.c ****             #endif /* I2S_1_CLIP_DETECT_ENABLE */
 117:Generated_Source\PSoC4/I2S_1.c ****         #endif /* I2S_1_RX_STEREO_2_PRESENT */
 118:Generated_Source\PSoC4/I2S_1.c ****         #if (I2S_1_RX_STEREO_3_PRESENT)
 119:Generated_Source\PSoC4/I2S_1.c ****             I2S_1_SET_RX_INT_MASK(CH3, I2S_1_RX_INT_SOURCE);
 120:Generated_Source\PSoC4/I2S_1.c ****             #if (I2S_1_CLIP_DETECT_ENABLE)
 121:Generated_Source\PSoC4/I2S_1.c ****                 I2S_1_SET_POS_THRESHOLD(CH3, I2S_1_posThresholds[I2S_1_STEREO_3]);
 122:Generated_Source\PSoC4/I2S_1.c ****                 I2S_1_SET_NEG_THRESHOLD(CH3, I2S_1_negThresholds[I2S_1_STEREO_3]);
 123:Generated_Source\PSoC4/I2S_1.c ****             #endif /* I2S_1_CLIP_DETECT_ENABLE */
 124:Generated_Source\PSoC4/I2S_1.c ****         #endif /* I2S_1_RX_STEREO_3_PRESENT */
 125:Generated_Source\PSoC4/I2S_1.c ****         #if (I2S_1_RX_STEREO_4_PRESENT)
 126:Generated_Source\PSoC4/I2S_1.c ****             I2S_1_SET_RX_INT_MASK(CH4, I2S_1_RX_INT_SOURCE);
 127:Generated_Source\PSoC4/I2S_1.c ****             #if (I2S_1_CLIP_DETECT_ENABLE)
 128:Generated_Source\PSoC4/I2S_1.c ****                 I2S_1_SET_POS_THRESHOLD(CH4, I2S_1_posThresholds[I2S_1_STEREO_4]);
 129:Generated_Source\PSoC4/I2S_1.c ****                 I2S_1_SET_NEG_THRESHOLD(CH4, I2S_1_negThresholds[I2S_1_STEREO_4]);
 130:Generated_Source\PSoC4/I2S_1.c ****             #endif /* I2S_1_CLIP_DETECT_ENABLE */
 131:Generated_Source\PSoC4/I2S_1.c ****         #endif /* I2S_1_RX_STEREO_4_PRESENT */
 132:Generated_Source\PSoC4/I2S_1.c ****     #endif /* (I2S_1_RX_DIRECTION_ENABLE) */
 133:Generated_Source\PSoC4/I2S_1.c **** }
 121              		.loc 1 133 0
 122 001e C046     		nop
 123 0020 BD46     		mov	sp, r7
 124              		@ sp needed
 125 0022 80BD     		pop	{r7, pc}
 126              	.L6:
 127              		.align	2
 128              	.L5:
 129 0024 81000F40 		.word	1074724993
 130              		.cfi_endproc
 131              	.LFE3:
 132              		.size	I2S_1_Init, .-I2S_1_Init
 133              		.section	.text.I2S_1_Start,"ax",%progbits
 134              		.align	2
 135              		.global	I2S_1_Start
 136              		.code	16
 137              		.thumb_func
 138              		.type	I2S_1_Start, %function
 139              	I2S_1_Start:
 140              	.LFB4:
 134:Generated_Source\PSoC4/I2S_1.c **** 
 135:Generated_Source\PSoC4/I2S_1.c **** 
 136:Generated_Source\PSoC4/I2S_1.c **** /*******************************************************************************
 137:Generated_Source\PSoC4/I2S_1.c **** * Function Name: I2S_1_Start
 138:Generated_Source\PSoC4/I2S_1.c **** ********************************************************************************
 139:Generated_Source\PSoC4/I2S_1.c **** *
 140:Generated_Source\PSoC4/I2S_1.c **** * Summary:
 141:Generated_Source\PSoC4/I2S_1.c **** *  Starts the I2S interface. Starts the generation of the sck and ws outputs.
 142:Generated_Source\PSoC4/I2S_1.c **** *  The Tx and Rx directions remain disabled.
 143:Generated_Source\PSoC4/I2S_1.c **** *
 144:Generated_Source\PSoC4/I2S_1.c **** * Parameters:
 145:Generated_Source\PSoC4/I2S_1.c **** *  None.
ARM GAS  C:\Users\PHYLLI~1\AppData\Local\Temp\ccOhvxTd.s 			page 6


 146:Generated_Source\PSoC4/I2S_1.c **** *
 147:Generated_Source\PSoC4/I2S_1.c **** * Return:
 148:Generated_Source\PSoC4/I2S_1.c **** *  None.
 149:Generated_Source\PSoC4/I2S_1.c **** *
 150:Generated_Source\PSoC4/I2S_1.c **** * Global Variables:
 151:Generated_Source\PSoC4/I2S_1.c **** *  I2S_1_initVar - used to check initial configuration, modified on
 152:Generated_Source\PSoC4/I2S_1.c **** *  first function call.
 153:Generated_Source\PSoC4/I2S_1.c **** *
 154:Generated_Source\PSoC4/I2S_1.c **** * Reentrant:
 155:Generated_Source\PSoC4/I2S_1.c **** *  No.
 156:Generated_Source\PSoC4/I2S_1.c **** *
 157:Generated_Source\PSoC4/I2S_1.c **** *******************************************************************************/
 158:Generated_Source\PSoC4/I2S_1.c **** void I2S_1_Start(void) 
 159:Generated_Source\PSoC4/I2S_1.c **** {
 141              		.loc 1 159 0
 142              		.cfi_startproc
 143              		@ args = 0, pretend = 0, frame = 0
 144              		@ frame_needed = 1, uses_anonymous_args = 0
 145 0000 80B5     		push	{r7, lr}
 146              		.cfi_def_cfa_offset 8
 147              		.cfi_offset 7, -8
 148              		.cfi_offset 14, -4
 149 0002 00AF     		add	r7, sp, #0
 150              		.cfi_def_cfa_register 7
 160:Generated_Source\PSoC4/I2S_1.c ****     if(0u == I2S_1_initVar)
 151              		.loc 1 160 0
 152 0004 064B     		ldr	r3, .L9
 153 0006 1B78     		ldrb	r3, [r3]
 154 0008 002B     		cmp	r3, #0
 155 000a 04D1     		bne	.L8
 161:Generated_Source\PSoC4/I2S_1.c ****     {
 162:Generated_Source\PSoC4/I2S_1.c ****         I2S_1_Init();
 156              		.loc 1 162 0
 157 000c FFF7FEFF 		bl	I2S_1_Init
 163:Generated_Source\PSoC4/I2S_1.c ****         I2S_1_initVar = 1u;
 158              		.loc 1 163 0
 159 0010 034B     		ldr	r3, .L9
 160 0012 0122     		movs	r2, #1
 161 0014 1A70     		strb	r2, [r3]
 162              	.L8:
 164:Generated_Source\PSoC4/I2S_1.c ****     }
 165:Generated_Source\PSoC4/I2S_1.c **** 
 166:Generated_Source\PSoC4/I2S_1.c ****     I2S_1_Enable();
 163              		.loc 1 166 0
 164 0016 FFF7FEFF 		bl	I2S_1_Enable
 167:Generated_Source\PSoC4/I2S_1.c **** }
 165              		.loc 1 167 0
 166 001a C046     		nop
 167 001c BD46     		mov	sp, r7
 168              		@ sp needed
 169 001e 80BD     		pop	{r7, pc}
 170              	.L10:
 171              		.align	2
 172              	.L9:
 173 0020 00000000 		.word	I2S_1_initVar
 174              		.cfi_endproc
 175              	.LFE4:
ARM GAS  C:\Users\PHYLLI~1\AppData\Local\Temp\ccOhvxTd.s 			page 7


 176              		.size	I2S_1_Start, .-I2S_1_Start
 177              		.section	.text.I2S_1_Stop,"ax",%progbits
 178              		.align	2
 179              		.global	I2S_1_Stop
 180              		.code	16
 181              		.thumb_func
 182              		.type	I2S_1_Stop, %function
 183              	I2S_1_Stop:
 184              	.LFB5:
 168:Generated_Source\PSoC4/I2S_1.c **** 
 169:Generated_Source\PSoC4/I2S_1.c **** 
 170:Generated_Source\PSoC4/I2S_1.c **** /*******************************************************************************
 171:Generated_Source\PSoC4/I2S_1.c **** * Function Name: I2S_1_Stop
 172:Generated_Source\PSoC4/I2S_1.c **** ********************************************************************************
 173:Generated_Source\PSoC4/I2S_1.c **** *
 174:Generated_Source\PSoC4/I2S_1.c **** * Summary:
 175:Generated_Source\PSoC4/I2S_1.c **** *  Disables the I2S interface. The sck and ws outputs are set to 0. The Tx and
 176:Generated_Source\PSoC4/I2S_1.c **** *  Rx directions are disabled and their FIFOs are cleared.
 177:Generated_Source\PSoC4/I2S_1.c **** *
 178:Generated_Source\PSoC4/I2S_1.c **** * Parameters:
 179:Generated_Source\PSoC4/I2S_1.c **** *  None.
 180:Generated_Source\PSoC4/I2S_1.c **** *
 181:Generated_Source\PSoC4/I2S_1.c **** * Return:
 182:Generated_Source\PSoC4/I2S_1.c **** *  None.
 183:Generated_Source\PSoC4/I2S_1.c **** *
 184:Generated_Source\PSoC4/I2S_1.c **** *******************************************************************************/
 185:Generated_Source\PSoC4/I2S_1.c **** void I2S_1_Stop(void) 
 186:Generated_Source\PSoC4/I2S_1.c **** {
 185              		.loc 1 186 0
 186              		.cfi_startproc
 187              		@ args = 0, pretend = 0, frame = 8
 188              		@ frame_needed = 1, uses_anonymous_args = 0
 189 0000 90B5     		push	{r4, r7, lr}
 190              		.cfi_def_cfa_offset 12
 191              		.cfi_offset 4, -12
 192              		.cfi_offset 7, -8
 193              		.cfi_offset 14, -4
 194 0002 83B0     		sub	sp, sp, #12
 195              		.cfi_def_cfa_offset 24
 196 0004 00AF     		add	r7, sp, #0
 197              		.cfi_def_cfa_register 7
 187:Generated_Source\PSoC4/I2S_1.c ****     uint8 enableInterrupts;
 188:Generated_Source\PSoC4/I2S_1.c **** 
 189:Generated_Source\PSoC4/I2S_1.c ****     I2S_1_CONTROL_REG &= (uint8)~I2S_1_EN;
 198              		.loc 1 189 0
 199 0006 124A     		ldr	r2, .L12
 200 0008 114B     		ldr	r3, .L12
 201 000a 1B78     		ldrb	r3, [r3]
 202 000c DBB2     		uxtb	r3, r3
 203 000e 0421     		movs	r1, #4
 204 0010 8B43     		bics	r3, r1
 205 0012 DBB2     		uxtb	r3, r3
 206 0014 1370     		strb	r3, [r2]
 190:Generated_Source\PSoC4/I2S_1.c **** 
 191:Generated_Source\PSoC4/I2S_1.c ****     enableInterrupts = CyEnterCriticalSection();
 207              		.loc 1 191 0
 208 0016 FC1D     		adds	r4, r7, #7
ARM GAS  C:\Users\PHYLLI~1\AppData\Local\Temp\ccOhvxTd.s 			page 8


 209 0018 FFF7FEFF 		bl	CyEnterCriticalSection
 210 001c 0300     		movs	r3, r0
 211 001e 2370     		strb	r3, [r4]
 192:Generated_Source\PSoC4/I2S_1.c ****     I2S_1_AUX_CONTROL_REG &= (uint8)~I2S_1_CNT_START;
 212              		.loc 1 192 0
 213 0020 0C4A     		ldr	r2, .L12+4
 214 0022 0C4B     		ldr	r3, .L12+4
 215 0024 1B78     		ldrb	r3, [r3]
 216 0026 DBB2     		uxtb	r3, r3
 217 0028 2021     		movs	r1, #32
 218 002a 8B43     		bics	r3, r1
 219 002c DBB2     		uxtb	r3, r3
 220 002e 1370     		strb	r3, [r2]
 193:Generated_Source\PSoC4/I2S_1.c ****     CyExitCriticalSection(enableInterrupts);
 221              		.loc 1 193 0
 222 0030 FB1D     		adds	r3, r7, #7
 223 0032 1B78     		ldrb	r3, [r3]
 224 0034 1800     		movs	r0, r3
 225 0036 FFF7FEFF 		bl	CyExitCriticalSection
 194:Generated_Source\PSoC4/I2S_1.c **** 
 195:Generated_Source\PSoC4/I2S_1.c ****     /* Clear counter value to force reload when component is enabled */
 196:Generated_Source\PSoC4/I2S_1.c ****     I2S_1_CNT_COUNT_REG = 0u;
 226              		.loc 1 196 0
 227 003a 074B     		ldr	r3, .L12+8
 228 003c 0022     		movs	r2, #0
 229 003e 1A70     		strb	r2, [r3]
 197:Generated_Source\PSoC4/I2S_1.c **** 
 198:Generated_Source\PSoC4/I2S_1.c ****     #if (I2S_1_TX_DIRECTION_ENABLE)
 199:Generated_Source\PSoC4/I2S_1.c ****         I2S_1_DisableTx();
 200:Generated_Source\PSoC4/I2S_1.c ****         I2S_1_ClearTxFIFO();
 201:Generated_Source\PSoC4/I2S_1.c ****     #endif /* (I2S_1_TX_DIRECTION_ENABLE) */
 202:Generated_Source\PSoC4/I2S_1.c ****     
 203:Generated_Source\PSoC4/I2S_1.c ****     #if (I2S_1_RX_DIRECTION_ENABLE)
 204:Generated_Source\PSoC4/I2S_1.c ****         I2S_1_DisableRx();
 230              		.loc 1 204 0
 231 0040 FFF7FEFF 		bl	I2S_1_DisableRx
 205:Generated_Source\PSoC4/I2S_1.c ****         I2S_1_ClearRxFIFO();
 232              		.loc 1 205 0
 233 0044 FFF7FEFF 		bl	I2S_1_ClearRxFIFO
 206:Generated_Source\PSoC4/I2S_1.c ****     #endif /* (I2S_1_RX_DIRECTION_ENABLE) */
 207:Generated_Source\PSoC4/I2S_1.c **** }
 234              		.loc 1 207 0
 235 0048 C046     		nop
 236 004a BD46     		mov	sp, r7
 237 004c 03B0     		add	sp, sp, #12
 238              		@ sp needed
 239 004e 90BD     		pop	{r4, r7, pc}
 240              	.L13:
 241              		.align	2
 242              	.L12:
 243 0050 71000F40 		.word	1074724977
 244 0054 90000F40 		.word	1074725008
 245 0058 70000F40 		.word	1074724976
 246              		.cfi_endproc
 247              	.LFE5:
 248              		.size	I2S_1_Stop, .-I2S_1_Stop
 249              		.section	.text.I2S_1_EnableRx,"ax",%progbits
ARM GAS  C:\Users\PHYLLI~1\AppData\Local\Temp\ccOhvxTd.s 			page 9


 250              		.align	2
 251              		.global	I2S_1_EnableRx
 252              		.code	16
 253              		.thumb_func
 254              		.type	I2S_1_EnableRx, %function
 255              	I2S_1_EnableRx:
 256              	.LFB6:
 208:Generated_Source\PSoC4/I2S_1.c **** 
 209:Generated_Source\PSoC4/I2S_1.c **** #if (I2S_1_DYNAMIC_BIT_RESOLUTION)
 210:Generated_Source\PSoC4/I2S_1.c ****     /*******************************************************************************
 211:Generated_Source\PSoC4/I2S_1.c ****     * Function Name: I2S_1_SetDataBits
 212:Generated_Source\PSoC4/I2S_1.c ****     ********************************************************************************
 213:Generated_Source\PSoC4/I2S_1.c ****     *
 214:Generated_Source\PSoC4/I2S_1.c ****     * Summary:
 215:Generated_Source\PSoC4/I2S_1.c ****     *  Sets the number of data bits for each sample. The component must be stopped
 216:Generated_Source\PSoC4/I2S_1.c ****     *  before calling this API.
 217:Generated_Source\PSoC4/I2S_1.c ****     *
 218:Generated_Source\PSoC4/I2S_1.c ****     * Parameters:
 219:Generated_Source\PSoC4/I2S_1.c ****     *  dataBits: the number of data bits for each sample. Valid values - 8/16/24/32.
 220:Generated_Source\PSoC4/I2S_1.c ****     *  If Tx or Rx byte swapping is enabled, valid values are 16 and 24.
 221:Generated_Source\PSoC4/I2S_1.c ****     *
 222:Generated_Source\PSoC4/I2S_1.c ****     * Return:
 223:Generated_Source\PSoC4/I2S_1.c ****     *  CYRET_SUCCESS  : Operation is successful
 224:Generated_Source\PSoC4/I2S_1.c ****     *  CYRET_BAD_PARAM: Invalid parameter value
 225:Generated_Source\PSoC4/I2S_1.c ****     *
 226:Generated_Source\PSoC4/I2S_1.c ****     * Side effects:
 227:Generated_Source\PSoC4/I2S_1.c ****     *  Calling this API while the component is operating may cause unexpected
 228:Generated_Source\PSoC4/I2S_1.c ****     *  behavior.
 229:Generated_Source\PSoC4/I2S_1.c ****     *
 230:Generated_Source\PSoC4/I2S_1.c ****     *******************************************************************************/
 231:Generated_Source\PSoC4/I2S_1.c ****     cystatus I2S_1_SetDataBits(uint8 dataBits)   
 232:Generated_Source\PSoC4/I2S_1.c ****     {
 233:Generated_Source\PSoC4/I2S_1.c ****         cystatus status;
 234:Generated_Source\PSoC4/I2S_1.c **** 
 235:Generated_Source\PSoC4/I2S_1.c ****         CYASSERT((dataBits >= I2S_1_MIN_DATA_BITS) && (dataBits <= I2S_1_MAX_DATA_BITS));
 236:Generated_Source\PSoC4/I2S_1.c **** 
 237:Generated_Source\PSoC4/I2S_1.c ****         status = CYRET_SUCCESS;
 238:Generated_Source\PSoC4/I2S_1.c ****         /* The component must be stopped prior calling this API. Therefore
 239:Generated_Source\PSoC4/I2S_1.c ****         * all the control bits except the bits modified are zeros.
 240:Generated_Source\PSoC4/I2S_1.c ****         */
 241:Generated_Source\PSoC4/I2S_1.c ****         switch(dataBits)
 242:Generated_Source\PSoC4/I2S_1.c ****         {
 243:Generated_Source\PSoC4/I2S_1.c ****         case I2S_1_8BIT_DATA:
 244:Generated_Source\PSoC4/I2S_1.c ****             I2S_1_CONTROL_REG = I2S_1_8BIT_MODE;
 245:Generated_Source\PSoC4/I2S_1.c ****             break;
 246:Generated_Source\PSoC4/I2S_1.c ****         case I2S_1_16BIT_DATA:
 247:Generated_Source\PSoC4/I2S_1.c ****             I2S_1_CONTROL_REG = I2S_1_16BIT_MODE;
 248:Generated_Source\PSoC4/I2S_1.c ****             break;
 249:Generated_Source\PSoC4/I2S_1.c ****         case I2S_1_24BIT_DATA:
 250:Generated_Source\PSoC4/I2S_1.c ****             I2S_1_CONTROL_REG = I2S_1_24BIT_MODE;
 251:Generated_Source\PSoC4/I2S_1.c ****             break;
 252:Generated_Source\PSoC4/I2S_1.c ****         case I2S_1_32BIT_DATA:
 253:Generated_Source\PSoC4/I2S_1.c ****             I2S_1_CONTROL_REG = I2S_1_32BIT_MODE;
 254:Generated_Source\PSoC4/I2S_1.c ****             break;
 255:Generated_Source\PSoC4/I2S_1.c ****         default: status = CYRET_BAD_PARAM;
 256:Generated_Source\PSoC4/I2S_1.c ****             break;
 257:Generated_Source\PSoC4/I2S_1.c ****         }
ARM GAS  C:\Users\PHYLLI~1\AppData\Local\Temp\ccOhvxTd.s 			page 10


 258:Generated_Source\PSoC4/I2S_1.c **** 
 259:Generated_Source\PSoC4/I2S_1.c ****         return (status);
 260:Generated_Source\PSoC4/I2S_1.c ****     }
 261:Generated_Source\PSoC4/I2S_1.c **** 
 262:Generated_Source\PSoC4/I2S_1.c **** #endif /* I2S_1_DYNAMIC_BIT_RESOLUTION */
 263:Generated_Source\PSoC4/I2S_1.c **** 
 264:Generated_Source\PSoC4/I2S_1.c **** #if(I2S_1_TX_DIRECTION_ENABLE)
 265:Generated_Source\PSoC4/I2S_1.c ****     /*******************************************************************************
 266:Generated_Source\PSoC4/I2S_1.c ****     * Function Name: I2S_1_EnableTx
 267:Generated_Source\PSoC4/I2S_1.c ****     ********************************************************************************
 268:Generated_Source\PSoC4/I2S_1.c ****     *
 269:Generated_Source\PSoC4/I2S_1.c ****     * Summary:
 270:Generated_Source\PSoC4/I2S_1.c ****     *  Enables the Tx direction of the I2S interface.  At the next word
 271:Generated_Source\PSoC4/I2S_1.c ****     *  select falling edge transmission will begin.
 272:Generated_Source\PSoC4/I2S_1.c ****     *
 273:Generated_Source\PSoC4/I2S_1.c ****     * Parameters:
 274:Generated_Source\PSoC4/I2S_1.c ****     *  None.
 275:Generated_Source\PSoC4/I2S_1.c ****     *
 276:Generated_Source\PSoC4/I2S_1.c ****     * Return:
 277:Generated_Source\PSoC4/I2S_1.c ****     *  None.
 278:Generated_Source\PSoC4/I2S_1.c ****     *
 279:Generated_Source\PSoC4/I2S_1.c ****     *******************************************************************************/
 280:Generated_Source\PSoC4/I2S_1.c ****     void I2S_1_EnableTx(void) 
 281:Generated_Source\PSoC4/I2S_1.c ****     {
 282:Generated_Source\PSoC4/I2S_1.c ****         uint8 enableInterrupts;
 283:Generated_Source\PSoC4/I2S_1.c **** 
 284:Generated_Source\PSoC4/I2S_1.c ****         enableInterrupts = CyEnterCriticalSection();
 285:Generated_Source\PSoC4/I2S_1.c ****         I2S_1_TX_STS0_1_ACTL_REG |= I2S_1_INT_EN;
 286:Generated_Source\PSoC4/I2S_1.c ****         #ifdef I2S_1_TX_STS2_3_ACTL_REG
 287:Generated_Source\PSoC4/I2S_1.c ****             I2S_1_TX_STS2_3_ACTL_REG |= I2S_1_INT_EN;
 288:Generated_Source\PSoC4/I2S_1.c ****         #endif /* I2S_1_TX_STS2_3_ACTL_REG */
 289:Generated_Source\PSoC4/I2S_1.c ****         #ifdef I2S_1_TX_STS4_ACTL_REG
 290:Generated_Source\PSoC4/I2S_1.c ****             I2S_1_TX_STS4_ACTL_REG |= I2S_1_INT_EN;
 291:Generated_Source\PSoC4/I2S_1.c ****         #endif /* I2S_1_TX_STS4_ACTL_REG */
 292:Generated_Source\PSoC4/I2S_1.c ****         CyExitCriticalSection(enableInterrupts);
 293:Generated_Source\PSoC4/I2S_1.c ****         
 294:Generated_Source\PSoC4/I2S_1.c ****         I2S_1_CONTROL_REG |= I2S_1_TX_EN;
 295:Generated_Source\PSoC4/I2S_1.c ****     }
 296:Generated_Source\PSoC4/I2S_1.c **** 
 297:Generated_Source\PSoC4/I2S_1.c **** 
 298:Generated_Source\PSoC4/I2S_1.c ****     /*******************************************************************************
 299:Generated_Source\PSoC4/I2S_1.c ****     * Function Name: I2S_1_DisableTx
 300:Generated_Source\PSoC4/I2S_1.c ****     ********************************************************************************
 301:Generated_Source\PSoC4/I2S_1.c ****     *
 302:Generated_Source\PSoC4/I2S_1.c ****     * Summary:
 303:Generated_Source\PSoC4/I2S_1.c ****     *  Disables the Tx direction of the I2S interface.  At the next word
 304:Generated_Source\PSoC4/I2S_1.c ****     *  select falling edge transmission of data will stop and a constant 0 value
 305:Generated_Source\PSoC4/I2S_1.c ****     *  will be transmitted.
 306:Generated_Source\PSoC4/I2S_1.c ****     *
 307:Generated_Source\PSoC4/I2S_1.c ****     * Parameters:
 308:Generated_Source\PSoC4/I2S_1.c ****     *  None.
 309:Generated_Source\PSoC4/I2S_1.c ****     *
 310:Generated_Source\PSoC4/I2S_1.c ****     * Return:
 311:Generated_Source\PSoC4/I2S_1.c ****     *  None.
 312:Generated_Source\PSoC4/I2S_1.c ****     *
 313:Generated_Source\PSoC4/I2S_1.c ****     *******************************************************************************/
 314:Generated_Source\PSoC4/I2S_1.c ****     void I2S_1_DisableTx(void) 
ARM GAS  C:\Users\PHYLLI~1\AppData\Local\Temp\ccOhvxTd.s 			page 11


 315:Generated_Source\PSoC4/I2S_1.c ****     {
 316:Generated_Source\PSoC4/I2S_1.c ****         uint8 enableInterrupts;
 317:Generated_Source\PSoC4/I2S_1.c **** 
 318:Generated_Source\PSoC4/I2S_1.c ****         I2S_1_CONTROL_REG &= (uint8)~I2S_1_TX_EN;
 319:Generated_Source\PSoC4/I2S_1.c **** 
 320:Generated_Source\PSoC4/I2S_1.c ****         enableInterrupts = CyEnterCriticalSection();
 321:Generated_Source\PSoC4/I2S_1.c ****         I2S_1_TX_STS0_1_ACTL_REG &= (uint8)~I2S_1_INT_EN;
 322:Generated_Source\PSoC4/I2S_1.c ****         #ifdef I2S_1_TX_STS2_3_ACTL_REG
 323:Generated_Source\PSoC4/I2S_1.c ****             I2S_1_TX_STS2_3_ACTL_REG &= (uint8)~I2S_1_INT_EN;
 324:Generated_Source\PSoC4/I2S_1.c ****         #endif /* I2S_1_TX_STS2_3_ACTL_REG */
 325:Generated_Source\PSoC4/I2S_1.c ****         #ifdef I2S_1_TX_STS4_ACTL_REG
 326:Generated_Source\PSoC4/I2S_1.c ****             I2S_1_TX_STS4_ACTL_REG &= (uint8)~I2S_1_INT_EN;
 327:Generated_Source\PSoC4/I2S_1.c ****         #endif /* I2S_1_TX_STS4_ACTL_REG */
 328:Generated_Source\PSoC4/I2S_1.c ****         CyExitCriticalSection(enableInterrupts);
 329:Generated_Source\PSoC4/I2S_1.c ****     }
 330:Generated_Source\PSoC4/I2S_1.c **** 
 331:Generated_Source\PSoC4/I2S_1.c **** 
 332:Generated_Source\PSoC4/I2S_1.c ****     /*******************************************************************************
 333:Generated_Source\PSoC4/I2S_1.c ****     * Function Name: I2S_1_ClearTxFIFO
 334:Generated_Source\PSoC4/I2S_1.c ****     ********************************************************************************
 335:Generated_Source\PSoC4/I2S_1.c ****     *
 336:Generated_Source\PSoC4/I2S_1.c ****     * Summary:
 337:Generated_Source\PSoC4/I2S_1.c ****     *  Clears out the FIFOs for all Tx channels. Any data present in the FIFO will
 338:Generated_Source\PSoC4/I2S_1.c ****     *  not be sent. This call should be made only when the Tx direction is disabled.
 339:Generated_Source\PSoC4/I2S_1.c ****     *
 340:Generated_Source\PSoC4/I2S_1.c ****     * Parameters:
 341:Generated_Source\PSoC4/I2S_1.c ****     *  None.
 342:Generated_Source\PSoC4/I2S_1.c ****     *
 343:Generated_Source\PSoC4/I2S_1.c ****     * Return:
 344:Generated_Source\PSoC4/I2S_1.c ****     *  None.
 345:Generated_Source\PSoC4/I2S_1.c ****     *
 346:Generated_Source\PSoC4/I2S_1.c ****     *******************************************************************************/
 347:Generated_Source\PSoC4/I2S_1.c ****     void I2S_1_ClearTxFIFO(void) 
 348:Generated_Source\PSoC4/I2S_1.c ****     {
 349:Generated_Source\PSoC4/I2S_1.c ****         uint8 enableInterrupts;
 350:Generated_Source\PSoC4/I2S_1.c **** 
 351:Generated_Source\PSoC4/I2S_1.c ****         enableInterrupts = CyEnterCriticalSection();
 352:Generated_Source\PSoC4/I2S_1.c ****         I2S_1_CLEAR_TX_FIFO(CH0);
 353:Generated_Source\PSoC4/I2S_1.c ****         #if (I2S_1_TX_STEREO_1_PRESENT)
 354:Generated_Source\PSoC4/I2S_1.c ****             I2S_1_CLEAR_TX_FIFO(CH1);
 355:Generated_Source\PSoC4/I2S_1.c ****         #endif /* I2S_1_TX_STEREO_1_PRESENT */
 356:Generated_Source\PSoC4/I2S_1.c ****         #if (I2S_1_TX_STEREO_2_PRESENT)
 357:Generated_Source\PSoC4/I2S_1.c ****             I2S_1_CLEAR_TX_FIFO(CH2);
 358:Generated_Source\PSoC4/I2S_1.c ****         #endif /* I2S_1_TX_STEREO_2_PRESENT */
 359:Generated_Source\PSoC4/I2S_1.c ****         #if (I2S_1_TX_STEREO_3_PRESENT)
 360:Generated_Source\PSoC4/I2S_1.c ****             I2S_1_CLEAR_TX_FIFO(CH3);
 361:Generated_Source\PSoC4/I2S_1.c ****         #endif /* I2S_1_TX_STEREO_3_PRESENT */
 362:Generated_Source\PSoC4/I2S_1.c ****         #if (I2S_1_TX_STEREO_4_PRESENT)
 363:Generated_Source\PSoC4/I2S_1.c ****             I2S_1_CLEAR_TX_FIFO(CH4);
 364:Generated_Source\PSoC4/I2S_1.c ****         #endif /* I2S_1_TX_STEREO_4_PRESENT */
 365:Generated_Source\PSoC4/I2S_1.c ****         CyExitCriticalSection(enableInterrupts);
 366:Generated_Source\PSoC4/I2S_1.c ****     }
 367:Generated_Source\PSoC4/I2S_1.c **** 
 368:Generated_Source\PSoC4/I2S_1.c **** #endif /* (I2S_1_TX_DIRECTION_ENABLE) */
 369:Generated_Source\PSoC4/I2S_1.c **** 
 370:Generated_Source\PSoC4/I2S_1.c **** 
 371:Generated_Source\PSoC4/I2S_1.c **** #if(I2S_1_RX_DIRECTION_ENABLE)
ARM GAS  C:\Users\PHYLLI~1\AppData\Local\Temp\ccOhvxTd.s 			page 12


 372:Generated_Source\PSoC4/I2S_1.c ****     /*******************************************************************************
 373:Generated_Source\PSoC4/I2S_1.c ****     * Function Name: I2S_1_EnableRx
 374:Generated_Source\PSoC4/I2S_1.c ****     ********************************************************************************
 375:Generated_Source\PSoC4/I2S_1.c ****     *
 376:Generated_Source\PSoC4/I2S_1.c ****     * Summary:
 377:Generated_Source\PSoC4/I2S_1.c ****     *  Enables the Rx direction of the I2S interface.  At the next word
 378:Generated_Source\PSoC4/I2S_1.c ****     *  select falling edge reception of data will begin.
 379:Generated_Source\PSoC4/I2S_1.c ****     *
 380:Generated_Source\PSoC4/I2S_1.c ****     * Parameters:
 381:Generated_Source\PSoC4/I2S_1.c ****     *  None.
 382:Generated_Source\PSoC4/I2S_1.c ****     *
 383:Generated_Source\PSoC4/I2S_1.c ****     * Return:
 384:Generated_Source\PSoC4/I2S_1.c ****     *  None.
 385:Generated_Source\PSoC4/I2S_1.c ****     *
 386:Generated_Source\PSoC4/I2S_1.c ****     *******************************************************************************/
 387:Generated_Source\PSoC4/I2S_1.c ****     void I2S_1_EnableRx(void) 
 388:Generated_Source\PSoC4/I2S_1.c ****     {
 257              		.loc 1 388 0
 258              		.cfi_startproc
 259              		@ args = 0, pretend = 0, frame = 8
 260              		@ frame_needed = 1, uses_anonymous_args = 0
 261 0000 90B5     		push	{r4, r7, lr}
 262              		.cfi_def_cfa_offset 12
 263              		.cfi_offset 4, -12
 264              		.cfi_offset 7, -8
 265              		.cfi_offset 14, -4
 266 0002 83B0     		sub	sp, sp, #12
 267              		.cfi_def_cfa_offset 24
 268 0004 00AF     		add	r7, sp, #0
 269              		.cfi_def_cfa_register 7
 389:Generated_Source\PSoC4/I2S_1.c ****         uint8 enableInterrupts;
 390:Generated_Source\PSoC4/I2S_1.c **** 
 391:Generated_Source\PSoC4/I2S_1.c ****         enableInterrupts = CyEnterCriticalSection();
 270              		.loc 1 391 0
 271 0006 FC1D     		adds	r4, r7, #7
 272 0008 FFF7FEFF 		bl	CyEnterCriticalSection
 273 000c 0300     		movs	r3, r0
 274 000e 2370     		strb	r3, [r4]
 392:Generated_Source\PSoC4/I2S_1.c ****         I2S_1_RX_STS0_1_ACTL_REG |= I2S_1_INT_EN;
 275              		.loc 1 392 0
 276 0010 0C4A     		ldr	r2, .L15
 277 0012 0C4B     		ldr	r3, .L15
 278 0014 1B78     		ldrb	r3, [r3]
 279 0016 DBB2     		uxtb	r3, r3
 280 0018 1021     		movs	r1, #16
 281 001a 0B43     		orrs	r3, r1
 282 001c DBB2     		uxtb	r3, r3
 283 001e 1370     		strb	r3, [r2]
 393:Generated_Source\PSoC4/I2S_1.c ****         #ifdef I2S_1_RX_STS2_3_ACTL_REG
 394:Generated_Source\PSoC4/I2S_1.c ****             I2S_1_RX_STS2_3_ACTL_REG |= I2S_1_INT_EN;
 395:Generated_Source\PSoC4/I2S_1.c ****         #endif /* I2S_1_RX_STS2_3_ACTL_REG */
 396:Generated_Source\PSoC4/I2S_1.c ****         #ifdef I2S_1_RX_STS4_ACTL_REG
 397:Generated_Source\PSoC4/I2S_1.c ****             I2S_1_RX_STS4_ACTL_REG |= I2S_1_INT_EN;
 398:Generated_Source\PSoC4/I2S_1.c ****         #endif /* I2S_1_RX_STS4_ACTL_REG */
 399:Generated_Source\PSoC4/I2S_1.c ****         CyExitCriticalSection(enableInterrupts);
 284              		.loc 1 399 0
 285 0020 FB1D     		adds	r3, r7, #7
ARM GAS  C:\Users\PHYLLI~1\AppData\Local\Temp\ccOhvxTd.s 			page 13


 286 0022 1B78     		ldrb	r3, [r3]
 287 0024 1800     		movs	r0, r3
 288 0026 FFF7FEFF 		bl	CyExitCriticalSection
 400:Generated_Source\PSoC4/I2S_1.c ****         
 401:Generated_Source\PSoC4/I2S_1.c ****         I2S_1_CONTROL_REG |= I2S_1_RX_EN;
 289              		.loc 1 401 0
 290 002a 074A     		ldr	r2, .L15+4
 291 002c 064B     		ldr	r3, .L15+4
 292 002e 1B78     		ldrb	r3, [r3]
 293 0030 DBB2     		uxtb	r3, r3
 294 0032 0221     		movs	r1, #2
 295 0034 0B43     		orrs	r3, r1
 296 0036 DBB2     		uxtb	r3, r3
 297 0038 1370     		strb	r3, [r2]
 402:Generated_Source\PSoC4/I2S_1.c ****     }
 298              		.loc 1 402 0
 299 003a C046     		nop
 300 003c BD46     		mov	sp, r7
 301 003e 03B0     		add	sp, sp, #12
 302              		@ sp needed
 303 0040 90BD     		pop	{r4, r7, pc}
 304              	.L16:
 305 0042 C046     		.align	2
 306              	.L15:
 307 0044 91000F40 		.word	1074725009
 308 0048 71000F40 		.word	1074724977
 309              		.cfi_endproc
 310              	.LFE6:
 311              		.size	I2S_1_EnableRx, .-I2S_1_EnableRx
 312              		.section	.text.I2S_1_DisableRx,"ax",%progbits
 313              		.align	2
 314              		.global	I2S_1_DisableRx
 315              		.code	16
 316              		.thumb_func
 317              		.type	I2S_1_DisableRx, %function
 318              	I2S_1_DisableRx:
 319              	.LFB7:
 403:Generated_Source\PSoC4/I2S_1.c **** 
 404:Generated_Source\PSoC4/I2S_1.c **** 
 405:Generated_Source\PSoC4/I2S_1.c ****     /*******************************************************************************
 406:Generated_Source\PSoC4/I2S_1.c ****     * Function Name: I2S_1_DisableRx
 407:Generated_Source\PSoC4/I2S_1.c ****     ********************************************************************************
 408:Generated_Source\PSoC4/I2S_1.c ****     *
 409:Generated_Source\PSoC4/I2S_1.c ****     * Summary:
 410:Generated_Source\PSoC4/I2S_1.c ****     *  Disables the Rx direction of the I2S interface.
 411:Generated_Source\PSoC4/I2S_1.c ****     *
 412:Generated_Source\PSoC4/I2S_1.c ****     * Parameters:
 413:Generated_Source\PSoC4/I2S_1.c ****     *  None.
 414:Generated_Source\PSoC4/I2S_1.c ****     *
 415:Generated_Source\PSoC4/I2S_1.c ****     * Return:
 416:Generated_Source\PSoC4/I2S_1.c ****     *  None.
 417:Generated_Source\PSoC4/I2S_1.c ****     *
 418:Generated_Source\PSoC4/I2S_1.c ****     *******************************************************************************/
 419:Generated_Source\PSoC4/I2S_1.c ****     void I2S_1_DisableRx(void) 
 420:Generated_Source\PSoC4/I2S_1.c ****     {
 320              		.loc 1 420 0
 321              		.cfi_startproc
ARM GAS  C:\Users\PHYLLI~1\AppData\Local\Temp\ccOhvxTd.s 			page 14


 322              		@ args = 0, pretend = 0, frame = 8
 323              		@ frame_needed = 1, uses_anonymous_args = 0
 324 0000 90B5     		push	{r4, r7, lr}
 325              		.cfi_def_cfa_offset 12
 326              		.cfi_offset 4, -12
 327              		.cfi_offset 7, -8
 328              		.cfi_offset 14, -4
 329 0002 83B0     		sub	sp, sp, #12
 330              		.cfi_def_cfa_offset 24
 331 0004 00AF     		add	r7, sp, #0
 332              		.cfi_def_cfa_register 7
 421:Generated_Source\PSoC4/I2S_1.c ****         uint8 enableInterrupts;
 422:Generated_Source\PSoC4/I2S_1.c **** 
 423:Generated_Source\PSoC4/I2S_1.c ****         I2S_1_CONTROL_REG &= (uint8)~I2S_1_RX_EN;
 333              		.loc 1 423 0
 334 0006 0F4A     		ldr	r2, .L18
 335 0008 0E4B     		ldr	r3, .L18
 336 000a 1B78     		ldrb	r3, [r3]
 337 000c DBB2     		uxtb	r3, r3
 338 000e 0221     		movs	r1, #2
 339 0010 8B43     		bics	r3, r1
 340 0012 DBB2     		uxtb	r3, r3
 341 0014 1370     		strb	r3, [r2]
 424:Generated_Source\PSoC4/I2S_1.c **** 
 425:Generated_Source\PSoC4/I2S_1.c ****         enableInterrupts = CyEnterCriticalSection();
 342              		.loc 1 425 0
 343 0016 FC1D     		adds	r4, r7, #7
 344 0018 FFF7FEFF 		bl	CyEnterCriticalSection
 345 001c 0300     		movs	r3, r0
 346 001e 2370     		strb	r3, [r4]
 426:Generated_Source\PSoC4/I2S_1.c ****         I2S_1_RX_STS0_1_ACTL_REG &= (uint8)~I2S_1_INT_EN;
 347              		.loc 1 426 0
 348 0020 094A     		ldr	r2, .L18+4
 349 0022 094B     		ldr	r3, .L18+4
 350 0024 1B78     		ldrb	r3, [r3]
 351 0026 DBB2     		uxtb	r3, r3
 352 0028 1021     		movs	r1, #16
 353 002a 8B43     		bics	r3, r1
 354 002c DBB2     		uxtb	r3, r3
 355 002e 1370     		strb	r3, [r2]
 427:Generated_Source\PSoC4/I2S_1.c ****         #ifdef I2S_1_RX_STS2_3_ACTL_REG
 428:Generated_Source\PSoC4/I2S_1.c ****             I2S_1_RX_STS2_3_ACTL_REG &= (uint8)~I2S_1_INT_EN;
 429:Generated_Source\PSoC4/I2S_1.c ****         #endif /* I2S_1_RX_STS2_3_ACTL_REG */
 430:Generated_Source\PSoC4/I2S_1.c ****         #ifdef I2S_1_RX_STS4_ACTL_REG
 431:Generated_Source\PSoC4/I2S_1.c ****             I2S_1_RX_STS4_ACTL_REG &= (uint8)~I2S_1_INT_EN;
 432:Generated_Source\PSoC4/I2S_1.c ****         #endif /* I2S_1_RX_STS4_ACTL_REG */
 433:Generated_Source\PSoC4/I2S_1.c ****         CyExitCriticalSection(enableInterrupts);
 356              		.loc 1 433 0
 357 0030 FB1D     		adds	r3, r7, #7
 358 0032 1B78     		ldrb	r3, [r3]
 359 0034 1800     		movs	r0, r3
 360 0036 FFF7FEFF 		bl	CyExitCriticalSection
 434:Generated_Source\PSoC4/I2S_1.c ****     }
 361              		.loc 1 434 0
 362 003a C046     		nop
 363 003c BD46     		mov	sp, r7
 364 003e 03B0     		add	sp, sp, #12
ARM GAS  C:\Users\PHYLLI~1\AppData\Local\Temp\ccOhvxTd.s 			page 15


 365              		@ sp needed
 366 0040 90BD     		pop	{r4, r7, pc}
 367              	.L19:
 368 0042 C046     		.align	2
 369              	.L18:
 370 0044 71000F40 		.word	1074724977
 371 0048 91000F40 		.word	1074725009
 372              		.cfi_endproc
 373              	.LFE7:
 374              		.size	I2S_1_DisableRx, .-I2S_1_DisableRx
 375              		.section	.text.I2S_1_ClearRxFIFO,"ax",%progbits
 376              		.align	2
 377              		.global	I2S_1_ClearRxFIFO
 378              		.code	16
 379              		.thumb_func
 380              		.type	I2S_1_ClearRxFIFO, %function
 381              	I2S_1_ClearRxFIFO:
 382              	.LFB8:
 435:Generated_Source\PSoC4/I2S_1.c **** 
 436:Generated_Source\PSoC4/I2S_1.c **** 
 437:Generated_Source\PSoC4/I2S_1.c ****     /*******************************************************************************
 438:Generated_Source\PSoC4/I2S_1.c ****     * Function Name: I2S_1_ClearRxFIFO
 439:Generated_Source\PSoC4/I2S_1.c ****     ********************************************************************************
 440:Generated_Source\PSoC4/I2S_1.c ****     *
 441:Generated_Source\PSoC4/I2S_1.c ****     * Summary:
 442:Generated_Source\PSoC4/I2S_1.c ****     *  Clears out the Rx FIFO.  Any data present in the FIFO will be lost.
 443:Generated_Source\PSoC4/I2S_1.c ****     *  This call should be made only when the Rx direction is disabled.
 444:Generated_Source\PSoC4/I2S_1.c ****     *
 445:Generated_Source\PSoC4/I2S_1.c ****     * Parameters:
 446:Generated_Source\PSoC4/I2S_1.c ****     *  None.
 447:Generated_Source\PSoC4/I2S_1.c ****     *
 448:Generated_Source\PSoC4/I2S_1.c ****     * Return:
 449:Generated_Source\PSoC4/I2S_1.c ****     *  None.
 450:Generated_Source\PSoC4/I2S_1.c ****     *
 451:Generated_Source\PSoC4/I2S_1.c ****     *******************************************************************************/
 452:Generated_Source\PSoC4/I2S_1.c ****     void I2S_1_ClearRxFIFO(void) 
 453:Generated_Source\PSoC4/I2S_1.c ****     {
 383              		.loc 1 453 0
 384              		.cfi_startproc
 385              		@ args = 0, pretend = 0, frame = 8
 386              		@ frame_needed = 1, uses_anonymous_args = 0
 387 0000 90B5     		push	{r4, r7, lr}
 388              		.cfi_def_cfa_offset 12
 389              		.cfi_offset 4, -12
 390              		.cfi_offset 7, -8
 391              		.cfi_offset 14, -4
 392 0002 83B0     		sub	sp, sp, #12
 393              		.cfi_def_cfa_offset 24
 394 0004 00AF     		add	r7, sp, #0
 395              		.cfi_def_cfa_register 7
 454:Generated_Source\PSoC4/I2S_1.c ****         uint8 enableInterrupts;
 455:Generated_Source\PSoC4/I2S_1.c **** 
 456:Generated_Source\PSoC4/I2S_1.c ****         enableInterrupts = CyEnterCriticalSection();
 396              		.loc 1 456 0
 397 0006 FC1D     		adds	r4, r7, #7
 398 0008 FFF7FEFF 		bl	CyEnterCriticalSection
 399 000c 0300     		movs	r3, r0
ARM GAS  C:\Users\PHYLLI~1\AppData\Local\Temp\ccOhvxTd.s 			page 16


 400 000e 2370     		strb	r3, [r4]
 457:Generated_Source\PSoC4/I2S_1.c ****         I2S_1_CLEAR_RX_FIFO(CH0);
 401              		.loc 1 457 0
 402 0010 0C4A     		ldr	r2, .L21
 403 0012 0C4B     		ldr	r3, .L21
 404 0014 1B78     		ldrb	r3, [r3]
 405 0016 DBB2     		uxtb	r3, r3
 406 0018 0321     		movs	r1, #3
 407 001a 0B43     		orrs	r3, r1
 408 001c DBB2     		uxtb	r3, r3
 409 001e 1370     		strb	r3, [r2]
 410 0020 084A     		ldr	r2, .L21
 411 0022 084B     		ldr	r3, .L21
 412 0024 1B78     		ldrb	r3, [r3]
 413 0026 DBB2     		uxtb	r3, r3
 414 0028 0321     		movs	r1, #3
 415 002a 8B43     		bics	r3, r1
 416 002c DBB2     		uxtb	r3, r3
 417 002e 1370     		strb	r3, [r2]
 458:Generated_Source\PSoC4/I2S_1.c ****         #if (I2S_1_RX_STEREO_1_PRESENT)
 459:Generated_Source\PSoC4/I2S_1.c ****             I2S_1_CLEAR_RX_FIFO(CH1);
 460:Generated_Source\PSoC4/I2S_1.c ****         #endif /* I2S_1_RX_STEREO_1_PRESENT */
 461:Generated_Source\PSoC4/I2S_1.c ****         #if (I2S_1_RX_STEREO_2_PRESENT)
 462:Generated_Source\PSoC4/I2S_1.c ****             I2S_1_CLEAR_RX_FIFO(CH2);
 463:Generated_Source\PSoC4/I2S_1.c ****         #endif /* I2S_1_RX_STEREO_2_PRESENT */
 464:Generated_Source\PSoC4/I2S_1.c ****         #if (I2S_1_RX_STEREO_3_PRESENT)
 465:Generated_Source\PSoC4/I2S_1.c ****             I2S_1_CLEAR_RX_FIFO(CH3);
 466:Generated_Source\PSoC4/I2S_1.c ****         #endif /* I2S_1_RX_STEREO_3_PRESENT */
 467:Generated_Source\PSoC4/I2S_1.c ****         #if (I2S_1_RX_STEREO_4_PRESENT)
 468:Generated_Source\PSoC4/I2S_1.c ****             I2S_1_CLEAR_RX_FIFO(CH4);
 469:Generated_Source\PSoC4/I2S_1.c ****         #endif /* I2S_1_RX_STEREO_4_PRESENT */
 470:Generated_Source\PSoC4/I2S_1.c ****         CyExitCriticalSection(enableInterrupts);
 418              		.loc 1 470 0
 419 0030 FB1D     		adds	r3, r7, #7
 420 0032 1B78     		ldrb	r3, [r3]
 421 0034 1800     		movs	r0, r3
 422 0036 FFF7FEFF 		bl	CyExitCriticalSection
 471:Generated_Source\PSoC4/I2S_1.c ****     }
 423              		.loc 1 471 0
 424 003a C046     		nop
 425 003c BD46     		mov	sp, r7
 426 003e 03B0     		add	sp, sp, #12
 427              		@ sp needed
 428 0040 90BD     		pop	{r4, r7, pc}
 429              	.L22:
 430 0042 C046     		.align	2
 431              	.L21:
 432 0044 91000F40 		.word	1074725009
 433              		.cfi_endproc
 434              	.LFE8:
 435              		.size	I2S_1_ClearRxFIFO, .-I2S_1_ClearRxFIFO
 436              		.text
 437              	.Letext0:
 438              		.file 2 "Generated_Source\\PSoC4\\cytypes.h"